; Function Attrs: nounwind uwtable
define void @KINPrintInfo(ptr noundef readonly captures(none) %0, i32 noundef %1, ptr noundef %2, ptr noundef %3, ptr noundef readonly captures(none) %4, ...) local_unnamed_addr #0 {
  %6 = alloca [1 x %struct.__va_list_tag], align 16
  %7 = alloca [256 x i8], align 16
  %8 = alloca [40 x i8], align 16
  %9 = alloca [30 x i8], align 16
  call void @llvm.lifetime.start.p0(i64 24, ptr nonnull %6) #14
  call void @llvm.lifetime.start.p0(i64 256, ptr nonnull %7) #14
  call void @llvm.lifetime.start.p0(i64 40, ptr nonnull %8) #14
  call void @llvm.lifetime.start.p0(i64 30, ptr nonnull %9) #14
  call void @llvm.va_start.p0(ptr nonnull %6)
  %10 = icmp eq i32 %1, 1
  br i1 %10, label %11, label %40

11:                                               ; preds = %5
  %12 = load i32, ptr %6, align 16
  %13 = icmp ult i32 %12, 41
  br i1 %13, label %14, label %20

14:                                               ; preds = %11
  %15 = getelementptr inbounds nuw i8, ptr %6, i64 16
  %16 = load ptr, ptr %15, align 16
  %17 = zext nneg i32 %12 to i64
  %18 = getelementptr i8, ptr %16, i64 %17
  %19 = add nuw nsw i32 %12, 8
  store i32 %19, ptr %6, align 16
  br label %24

20:                                               ; preds = %11
  %21 = getelementptr inbounds nuw i8, ptr %6, i64 8
  %22 = load ptr, ptr %21, align 8
  %23 = getelementptr i8, ptr %22, i64 8
  store ptr %23, ptr %21, align 8
  br label %24

24:                                               ; preds = %20, %14
  %25 = phi ptr [ %18, %14 ], [ %22, %20 ]
  %26 = load i32, ptr %25, align 4, !tbaa !121
  switch i32 %26, label %37 [
    i32 0, label %27
    i32 -13, label %28
    i32 2, label %29
    i32 -5, label %30
    i32 -8, label %31
    i32 -6, label %32
    i32 -7, label %33
    i32 -9, label %34
    i32 -11, label %35
    i32 -12, label %36
  ]

27:                                               ; preds = %24
  call void @llvm.memcpy.p0.p0.i64(ptr noundef nonnull align 16 dereferenceable(12) %9, ptr noundef nonnull align 1 dereferenceable(12) @.str.23, i64 12, i1 false)
  br label %37

28:                                               ; preds = %24
  call void @llvm.memcpy.p0.p0.i64(ptr noundef nonnull align 16 dereferenceable(17) %9, ptr noundef nonnull align 1 dereferenceable(17) @.str.24, i64 17, i1 false)
  br label %37

29:                                               ; preds = %24
  call void @llvm.memcpy.p0.p0.i64(ptr noundef nonnull align 16 dereferenceable(19) %9, ptr noundef nonnull align 1 dereferenceable(19) @.str.25, i64 19, i1 false)
  br label %37

30:                                               ; preds = %24
  call void @llvm.memcpy.p0.p0.i64(ptr noundef nonnull align 16 dereferenceable(23) %9, ptr noundef nonnull align 1 dereferenceable(23) @.str.26, i64 23, i1 false)
  br label %37

31:                                               ; preds = %24
  call void @llvm.memcpy.p0.p0.i64(ptr noundef nonnull align 16 dereferenceable(22) %9, ptr noundef nonnull align 1 dereferenceable(22) @.str.27, i64 22, i1 false)
  br label %37

32:                                               ; preds = %24
  call void @llvm.memcpy.p0.p0.i64(ptr noundef nonnull align 16 dereferenceable(20) %9, ptr noundef nonnull align 1 dereferenceable(20) @.str.28, i64 20, i1 false)
  br label %37

33:                                               ; preds = %24
  call void @llvm.memcpy.p0.p0.i64(ptr noundef nonnull align 16 dereferenceable(23) %9, ptr noundef nonnull align 1 dereferenceable(23) @.str.29, i64 23, i1 false)
  br label %37

34:                                               ; preds = %24
  call void @llvm.memcpy.p0.p0.i64(ptr noundef nonnull align 16 dereferenceable(24) %9, ptr noundef nonnull align 1 dereferenceable(24) @.str.30, i64 24, i1 false)
  br label %37

35:                                               ; preds = %24
  call void @llvm.memcpy.p0.p0.i64(ptr noundef nonnull align 16 dereferenceable(23) %9, ptr noundef nonnull align 1 dereferenceable(23) @.str.31, i64 23, i1 false)
  br label %37

36:                                               ; preds = %24
  call void @llvm.memcpy.p0.p0.i64(ptr noundef nonnull align 16 dereferenceable(25) %9, ptr noundef nonnull align 1 dereferenceable(25) @.str.32, i64 25, i1 false)
  br label %37

37:                                               ; preds = %36, %35, %34, %33, %32, %31, %30, %29, %28, %27, %24
  %38 = call i32 (ptr, ptr, ...) @sprintf(ptr noundef nonnull dereferenceable(1) %8, ptr noundef nonnull dereferenceable(1) %4, i32 noundef %26) #14
  %39 = call i32 (ptr, ptr, ...) @sprintf(ptr noundef nonnull dereferenceable(1) %7, ptr noundef nonnull dereferenceable(1) @.str.33, ptr noundef nonnull %8, ptr noundef nonnull %9) #14
  br label %42

40:                                               ; preds = %5
  %41 = call i32 @vsprintf(ptr noundef nonnull %7, ptr noundef %4, ptr noundef nonnull %6) #14
  br label %42

42:                                               ; preds = %40, %37
  %43 = getelementptr inbounds nuw i8, ptr %0, i64 608
  %44 = load ptr, ptr %43, align 8, !tbaa !19
  %45 = getelementptr inbounds nuw i8, ptr %0, i64 616
  %46 = load ptr, ptr %45, align 8, !tbaa !20
  call void %44(ptr noundef %2, ptr noundef %3, ptr noundef nonnull %7, ptr noundef %46) #14
  call void @llvm.va_end.p0(ptr nonnull %6)
  call void @llvm.lifetime.end.p0(i64 30, ptr nonnull %9) #14
  call void @llvm.lifetime.end.p0(i64 40, ptr nonnull %8) #14
  call void @llvm.lifetime.end.p0(i64 256, ptr nonnull %7) #14
  call void @llvm.lifetime.end.p0(i64 24, ptr nonnull %6) #14
  ret void
}